; Function Attrs: nounwind uwtable
define internal fastcc range(i32 0, 19) i32 @initializeEncoding(ptr noundef %0) unnamed_addr #0 {
  %2 = alloca %struct.XML_Encoding, align 8
  %3 = getelementptr inbounds nuw i8, ptr %0, i64 456
  %4 = load ptr, ptr %3, align 8, !tbaa !60
  %5 = getelementptr inbounds nuw i8, ptr %0, i64 312
  %6 = getelementptr inbounds nuw i8, ptr %0, i64 304
  %7 = tail call i32 @XmlInitEncoding(ptr noundef nonnull %5, ptr noundef nonnull %6, ptr noundef %4) #23
  %.not = icmp eq i32 %7, 0
  br i1 %.not, label %8, label %handleUnknownEncoding.exit

8:                                                ; preds = %1
  %9 = getelementptr inbounds nuw i8, ptr %0, i64 264
  %10 = load ptr, ptr %9, align 8, !tbaa !55
  %.not.i = icmp eq ptr %10, null
  br i1 %.not.i, label %handleUnknownEncoding.exit, label %11

11:                                               ; preds = %8
  %12 = load ptr, ptr %3, align 8, !tbaa !60
  call void @llvm.lifetime.start.p0(i64 1048, ptr nonnull %2) #23
  call void @llvm.memset.p0.i64(ptr noundef nonnull align 8 dereferenceable(1024) %2, i8 -1, i64 1024, i1 false), !tbaa !192
  %13 = getelementptr inbounds nuw i8, ptr %2, i64 1032
  %14 = getelementptr inbounds nuw i8, ptr %2, i64 1024
  %15 = getelementptr inbounds nuw i8, ptr %2, i64 1040
  %16 = getelementptr inbounds nuw i8, ptr %0, i64 488
  call void @llvm.memset.p0.i64(ptr noundef nonnull align 8 dereferenceable(24) %14, i8 0, i64 24, i1 false)
  %17 = load ptr, ptr %16, align 8, !tbaa !56
  %18 = call i32 %10(ptr noundef %17, ptr noundef %12, ptr noundef nonnull %2) #23
  %.not26.i = icmp eq i32 %18, 0
  br i1 %.not26.i, label %39, label %19

19:                                               ; preds = %11
  %20 = getelementptr inbounds nuw i8, ptr %0, i64 24
  %21 = load ptr, ptr %20, align 8, !tbaa !35
  %22 = call i32 @XmlSizeOfUnknownEncoding() #23
  %23 = sext i32 %22 to i64
  %24 = call ptr %21(i64 noundef %23) #23
  %25 = getelementptr inbounds nuw i8, ptr %0, i64 472
  store ptr %24, ptr %25, align 8, !tbaa !95
  %.not27.i = icmp eq ptr %24, null
  br i1 %.not27.i, label %26, label %30

26:                                               ; preds = %19
  %27 = load ptr, ptr %15, align 8, !tbaa !215
  %.not28.i = icmp eq ptr %27, null
  br i1 %.not28.i, label %.sink.split.i, label %28

28:                                               ; preds = %26
  %29 = load ptr, ptr %14, align 8, !tbaa !217
  call void %27(ptr noundef %29) #23
  br label %.sink.split.i

30:                                               ; preds = %19
  %31 = load ptr, ptr %13, align 8, !tbaa !218
  %32 = load ptr, ptr %14, align 8, !tbaa !217
  %33 = call ptr @XmlInitUnknownEncoding(ptr noundef nonnull %24, ptr noundef nonnull %2, ptr noundef %31, ptr noundef %32) #23
  %.not29.i = icmp eq ptr %33, null
  br i1 %.not29.i, label %39, label %34

34:                                               ; preds = %30
  %35 = load ptr, ptr %14, align 8, !tbaa !217
  %36 = getelementptr inbounds nuw i8, ptr %0, i64 480
  store ptr %35, ptr %36, align 8, !tbaa !96
  %37 = load ptr, ptr %15, align 8, !tbaa !215
  %38 = getelementptr inbounds nuw i8, ptr %0, i64 496
  store ptr %37, ptr %38, align 8, !tbaa !77
  store ptr %33, ptr %6, align 8, !tbaa !186
  br label %.sink.split.i

39:                                               ; preds = %30, %11
  %40 = load ptr, ptr %15, align 8, !tbaa !215
  %.not30.i = icmp eq ptr %40, null
  br i1 %.not30.i, label %.sink.split.i, label %41

41:                                               ; preds = %39
  %42 = load ptr, ptr %14, align 8, !tbaa !217
  call void %40(ptr noundef %42) #23
  br label %.sink.split.i

.sink.split.i:                                    ; preds = %41, %39, %34, %28, %26
  %.3.ph.i = phi i32 [ 18, %41 ], [ 18, %39 ], [ 1, %26 ], [ 1, %28 ], [ 0, %34 ]
  call void @llvm.lifetime.end.p0(i64 1048, ptr nonnull %2) #23
  br label %handleUnknownEncoding.exit

handleUnknownEncoding.exit:                       ; preds = %.sink.split.i, %8, %1
  %.0 = phi i32 [ 0, %1 ], [ 18, %8 ], [ %.3.ph.i, %.sink.split.i ]
  ret i32 %.0
}